target datalayout = "e-m:e-p270:32:32-p271:32:32-p272:64:64-i64:64-i128:128-f80:128-n8:16:32:64-S128"
target triple = "x86_64-pc-linux-gnu"

%struct.stbcc__cluster_build_info = type { [32 x [32 x %struct.stbcc__tinypoint]], [32 x [32 x i16]] }
%struct.stbcc__tinypoint = type { i8, i8 }

; Function Attrs: nounwind uwtable
define void @stbcc__switch_root(ptr noundef %0, i32 noundef %1, i32 noundef %2, i16 %3) #0 {
  %5 = alloca %struct.stbcc__tinypoint, align 1
  %6 = alloca ptr, align 8
  %7 = alloca i32, align 4
  %8 = alloca i32, align 4
  store i16 %3, ptr %5, align 1
  store ptr %0, ptr %6, align 8, !tbaa !14
  store i32 %1, ptr %7, align 4, !tbaa !8
  store i32 %2, ptr %8, align 4, !tbaa !8
  %9 = load i32, ptr %7, align 4, !tbaa !8
  %10 = trunc i32 %9 to i8
  %11 = load ptr, ptr %6, align 8, !tbaa !14
  %12 = getelementptr inbounds nuw %struct.stbcc__cluster_build_info, ptr %11, i32 0, i32 0
  %13 = getelementptr inbounds nuw %struct.stbcc__tinypoint, ptr %5, i32 0, i32 1
  %14 = load i8, ptr %13, align 1, !tbaa !48
  %15 = zext i8 %14 to i64
  %16 = getelementptr inbounds nuw [32 x [32 x %struct.stbcc__tinypoint]], ptr %12, i64 0, i64 %15
  %17 = getelementptr inbounds nuw %struct.stbcc__tinypoint, ptr %5, i32 0, i32 0
  %18 = load i8, ptr %17, align 1, !tbaa !46
  %19 = zext i8 %18 to i64
  %20 = getelementptr inbounds nuw [32 x %struct.stbcc__tinypoint], ptr %16, i64 0, i64 %19
  %21 = getelementptr inbounds nuw %struct.stbcc__tinypoint, ptr %20, i32 0, i32 0
  store i8 %10, ptr %21, align 2, !tbaa !46
  %22 = load i32, ptr %8, align 4, !tbaa !8
  %23 = trunc i32 %22 to i8
  %24 = load ptr, ptr %6, align 8, !tbaa !14
  %25 = getelementptr inbounds nuw %struct.stbcc__cluster_build_info, ptr %24, i32 0, i32 0
  %26 = getelementptr inbounds nuw %struct.stbcc__tinypoint, ptr %5, i32 0, i32 1
  %27 = load i8, ptr %26, align 1, !tbaa !48
  %28 = zext i8 %27 to i64
  %29 = getelementptr inbounds nuw [32 x [32 x %struct.stbcc__tinypoint]], ptr %25, i64 0, i64 %28
  %30 = getelementptr inbounds nuw %struct.stbcc__tinypoint, ptr %5, i32 0, i32 0
  %31 = load i8, ptr %30, align 1, !tbaa !46
  %32 = zext i8 %31 to i64
  %33 = getelementptr inbounds nuw [32 x %struct.stbcc__tinypoint], ptr %29, i64 0, i64 %32
  %34 = getelementptr inbounds nuw %struct.stbcc__tinypoint, ptr %33, i32 0, i32 1
  store i8 %23, ptr %34, align 1, !tbaa !48
  %35 = load i32, ptr %7, align 4, !tbaa !8
  %36 = trunc i32 %35 to i8
  %37 = load ptr, ptr %6, align 8, !tbaa !14
  %38 = getelementptr inbounds nuw %struct.stbcc__cluster_build_info, ptr %37, i32 0, i32 0
  %39 = load i32, ptr %8, align 4, !tbaa !8
  %40 = sext i32 %39 to i64
  %41 = getelementptr inbounds [32 x [32 x %struct.stbcc__tinypoint]], ptr %38, i64 0, i64 %40
  %42 = load i32, ptr %7, align 4, !tbaa !8
  %43 = sext i32 %42 to i64
  %44 = getelementptr inbounds [32 x %struct.stbcc__tinypoint], ptr %41, i64 0, i64 %43
  %45 = getelementptr inbounds nuw %struct.stbcc__tinypoint, ptr %44, i32 0, i32 0
  store i8 %36, ptr %45, align 2, !tbaa !46
  %46 = load i32, ptr %8, align 4, !tbaa !8
  %47 = trunc i32 %46 to i8
  %48 = load ptr, ptr %6, align 8, !tbaa !14
  %49 = getelementptr inbounds nuw %struct.stbcc__cluster_build_info, ptr %48, i32 0, i32 0
  %50 = load i32, ptr %8, align 4, !tbaa !8
  %51 = sext i32 %50 to i64
  %52 = getelementptr inbounds [32 x [32 x %struct.stbcc__tinypoint]], ptr %49, i64 0, i64 %51
  %53 = load i32, ptr %7, align 4, !tbaa !8
  %54 = sext i32 %53 to i64
  %55 = getelementptr inbounds [32 x %struct.stbcc__tinypoint], ptr %52, i64 0, i64 %54
  %56 = getelementptr inbounds nuw %struct.stbcc__tinypoint, ptr %55, i32 0, i32 1
  store i8 %47, ptr %56, align 1, !tbaa !48
  ret void
}