; Function Attrs: mustprogress nofree norecurse nosync nounwind willreturn memory(argmem: write) uwtable
define void @stbcc__switch_root(ptr noundef writeonly captures(none) %0, i32 noundef %1, i32 noundef %2, i16 %3) local_unnamed_addr #6 {
  %.sroa.3.0.extract.shift = lshr i16 %3, 8
  %.sroa.3.0.extract.trunc = zext nneg i16 %.sroa.3.0.extract.shift to i64
  %5 = trunc i32 %1 to i8
  %6 = and i16 %3, 255
  %7 = zext nneg i16 %6 to i64
  %8 = getelementptr inbounds nuw [32 x [32 x %struct.stbcc__tinypoint]], ptr %0, i64 0, i64 %.sroa.3.0.extract.trunc, i64 %7
  store i8 %5, ptr %8, align 2, !tbaa !37
  %9 = trunc i32 %2 to i8
  %10 = getelementptr inbounds nuw i8, ptr %8, i64 1
  store i8 %9, ptr %10, align 1, !tbaa !39
  %11 = sext i32 %2 to i64
  %12 = sext i32 %1 to i64
  %13 = getelementptr inbounds [32 x [32 x %struct.stbcc__tinypoint]], ptr %0, i64 0, i64 %11, i64 %12
  store i8 %5, ptr %13, align 2, !tbaa !37
  %14 = getelementptr inbounds nuw i8, ptr %13, i64 1
  store i8 %9, ptr %14, align 1, !tbaa !39
  ret void
}